; Function Attrs: nounwind uwtable
define i32 @ff_g723_1_dot_product(ptr noundef %0, ptr noundef %1, i32 noundef %2) local_unnamed_addr #3 {
  %4 = tail call i64 @ff_dot_product(ptr noundef %0, ptr noundef %1, i32 noundef %2) #7
  %sext = shl i64 %4, 32
  %5 = ashr exact i64 %sext, 31
  %6 = tail call i64 @llvm.smax.i64(i64 %5, i64 -2147483648)
  %7 = tail call i64 @llvm.smin.i64(i64 %6, i64 2147483647)
  %.0.i = trunc nsw i64 %7 to i32
  ret i32 %.0.i
}